(imatplotlib.font_manager
FontManager
p1
(dp2
S'afm_lookup_cache'
p3
(dp4
sS'ttflist'
p5
(lp6
ccopy_reg
_reconstructor
p7
(cmatplotlib.font_manager
FontEntry
p8
c__builtin__
object
p9
NtRp10
(dp11
S'style'
p12
S'normal'
p13
sS'name'
p14
S'cmb10'
p15
sS'weight'
p16
I400
sS'stretch'
p17
g13
sS'variant'
p18
g13
sS'fname'
p19
S'/usr/share/matplotlib/mpl-data/fonts/ttf/cmb10.ttf'
p20
sS'size'
p21
S'scalable'
p22
sbag7
(g8
g9
NtRp23
(dp24
g12
g13
sg14
S'cmex10'
p25
sg16
I400
sg17
g13
sg18
g13
sg19
S'/usr/share/matplotlib/mpl-data/fonts/ttf/cmex10.ttf'
p26
sg21
g22
sbag7
(g8
g9
NtRp27
(dp28
g12
S'italic'
p29
sg14
S'STIXNonUnicode'
p30
sg16
I400
sg17
g13
sg18
g13
sg19
S'/usr/share/matplotlib/mpl-data/fonts/ttf/STIXNonUniIta.ttf'
p31
sg21
g22
sbag7
(g8
g9
NtRp32
(dp33
g12
g13
sg14
S'STIXSizeOneSym'
p34
sg16
I400
sg17
g13
sg18
g13
sg19
S'/usr/share/matplotlib/mpl-data/fonts/ttf/STIXSizOneSymReg.ttf'
p35
sg21
g22
sbag7
(g8
g9
NtRp36
(dp37
g12
g13
sg14
S'STIXSizeThreeSym'
p38
sg16
I400
sg17
g13
sg18
g13
sg19
S'/usr/share/matplotlib/mpl-data/fonts/ttf/STIXSizThreeSymReg.ttf'
p39
sg21
g22
sbag7
(g8
g9
NtRp40
(dp41
g12
g13
sg14
S'STIXSizeTwoSym'
p42
sg16
I700
sg17
g13
sg18
g13
sg19
S'/usr/share/matplotlib/mpl-data/fonts/ttf/STIXSizTwoSymBol.ttf'
p43
sg21
g22
sbag7
(g8
g9
NtRp44
(dp45
g12
g13
sg14
S'cmtt10'
p46
sg16
I400
sg17
g13
sg18
g13
sg19
S'/usr/share/matplotlib/mpl-data/fonts/ttf/cmtt10.ttf'
p47
sg21
g22
sbag7
(g8
g9
NtRp48
(dp49
g12
g13
sg14
S'STIXGeneral'
p50
sg16
I400
sg17
g13
sg18
g13
sg19
S'/usr/share/matplotlib/mpl-data/fonts/ttf/STIXGeneral.ttf'
p51
sg21
g22
sbag7
(g8
g9
NtRp52
(dp53
g12
g29
sg14
S'STIXNonUnicode'
p54
sg16
I700
sg17
g13
sg18
g13
sg19
S'/usr/share/matplotlib/mpl-data/fonts/ttf/STIXNonUniBolIta.ttf'
p55
sg21
g22
sbag7
(g8
g9
NtRp56
(dp57
g12
g13
sg14
S'STIXNonUnicode'
p58
sg16
I400
sg17
g13
sg18
g13
sg19
S'/usr/share/matplotlib/mpl-data/fonts/ttf/STIXNonUni.ttf'
p59
sg21
g22
sbag7
(g8
g9
NtRp60
(dp61
g12
g13
sg14
S'STIXSizeFiveSym'
p62
sg16
I400
sg17
g13
sg18
g13
sg19
S'/usr/share/matplotlib/mpl-data/fonts/ttf/STIXSizFiveSymReg.ttf'
p63
sg21
g22
sbag7
(g8
g9
NtRp64
(dp65
g12
g13
sg14
S'STIXSizeOneSym'
p66
sg16
I700
sg17
g13
sg18
g13
sg19
S'/usr/share/matplotlib/mpl-data/fonts/ttf/STIXSizOneSymBol.ttf'
p67
sg21
g22
sbag7
(g8
g9
NtRp68
(dp69
g12
g13
sg14
S'STIXGeneral'
p70
sg16
I700
sg17
g13
sg18
g13
sg19
S'/usr/share/matplotlib/mpl-data/fonts/ttf/STIXGeneralBol.ttf'
p71
sg21
g22
sbag7
(g8
g9
NtRp72
(dp73
g12
g13
sg14
S'cmr10'
p74
sg16
I400
sg17
g13
sg18
g13
sg19
S'/usr/share/matplotlib/mpl-data/fonts/ttf/cmr10.ttf'
p75
sg21
g22
sbag7
(g8
g9
NtRp76
(dp77
g12
g13
sg14
S'STIXSizeTwoSym'
p78
sg16
I400
sg17
g13
sg18
g13
sg19
S'/usr/share/matplotlib/mpl-data/fonts/ttf/STIXSizTwoSymReg.ttf'
p79
sg21
g22
sbag7
(g8
g9
NtRp80
(dp81
g12
g13
sg14
S'STIXSizeFourSym'
p82
sg16
I400
sg17
g13
sg18
g13
sg19
S'/usr/share/matplotlib/mpl-data/fonts/ttf/STIXSizFourSymReg.ttf'
p83
sg21
g22
sbag7
(g8
g9
NtRp84
(dp85
g12
g13
sg14
S'cmsy10'
p86
sg16
I400
sg17
g13
sg18
g13
sg19
S'/usr/share/matplotlib/mpl-data/fonts/ttf/cmsy10.ttf'
p87
sg21
g22
sbag7
(g8
g9
NtRp88
(dp89
g12
g13
sg14
S'STIXSizeThreeSym'
p90
sg16
I700
sg17
g13
sg18
g13
sg19
S'/usr/share/matplotlib/mpl-data/fonts/ttf/STIXSizThreeSymBol.ttf'
p91
sg21
g22
sbag7
(g8
g9
NtRp92
(dp93
g12
g13
sg14
S'cmss10'
p94
sg16
I400
sg17
g13
sg18
g13
sg19
S'/usr/share/matplotlib/mpl-data/fonts/ttf/cmss10.ttf'
p95
sg21
g22
sbag7
(g8
g9
NtRp96
(dp97
g12
g13
sg14
S'STIXSizeFourSym'
p98
sg16
I700
sg17
g13
sg18
g13
sg19
S'/usr/share/matplotlib/mpl-data/fonts/ttf/STIXSizFourSymBol.ttf'
p99
sg21
g22
sbag7
(g8
g9
NtRp100
(dp101
g12
g29
sg14
S'STIXGeneral'
p102
sg16
I400
sg17
g13
sg18
g13
sg19
S'/usr/share/matplotlib/mpl-data/fonts/ttf/STIXGeneralItalic.ttf'
p103
sg21
g22
sbag7
(g8
g9
NtRp104
(dp105
g12
g13
sg14
S'cmmi10'
p106
sg16
I400
sg17
g13
sg18
g13
sg19
S'/usr/share/matplotlib/mpl-data/fonts/ttf/cmmi10.ttf'
p107
sg21
g22
sbag7
(g8
g9
NtRp108
(dp109
g12
g13
sg14
S'STIXNonUnicode'
p110
sg16
I700
sg17
g13
sg18
g13
sg19
S'/usr/share/matplotlib/mpl-data/fonts/ttf/STIXNonUniBol.ttf'
p111
sg21
g22
sbag7
(g8
g9
NtRp112
(dp113
g12
g29
sg14
S'STIXGeneral'
p114
sg16
I700
sg17
g13
sg18
g13
sg19
S'/usr/share/matplotlib/mpl-data/fonts/ttf/STIXGeneralBolIta.ttf'
p115
sg21
g22
sbag7
(g8
g9
NtRp116
(dp117
g12
g29
sg14
S'Liberation Serif'
p118
sg16
I700
sg17
g13
sg18
g13
sg19
S'/usr/share/fonts/truetype/liberation/LiberationSerif-BoldItalic.ttf'
p119
sg21
g22
sbag7
(g8
g9
NtRp120
(dp121
g12
g13
sg14
S'DejaVu Sans'
p122
sg16
I400
sg17
g13
sg18
g13
sg19
S'/usr/share/fonts/truetype/ttf-dejavu/DejaVuSans.ttf'
p123
sg21
g22
sbag7
(g8
g9
NtRp124
(dp125
g12
S'oblique'
p126
sg14
S'DejaVu Sans'
p127
sg16
I400
sg17
g13
sg18
g13
sg19
S'/usr/share/fonts/truetype/ttf-dejavu/DejaVuSans-Oblique.ttf'
p128
sg21
g22
sbag7
(g8
g9
NtRp129
(dp130
g12
g13
sg14
S'Liberation Sans'
p131
sg16
I400
sg17
g13
sg18
g13
sg19
S'/usr/share/fonts/truetype/liberation/LiberationSans-Regular.ttf'
p132
sg21
g22
sbag7
(g8
g9
NtRp133
(dp134
g12
g13
sg14
S'Liberation Serif'
p135
sg16
I700
sg17
g13
sg18
g13
sg19
S'/usr/share/fonts/truetype/liberation/LiberationSerif-Bold.ttf'
p136
sg21
g22
sbag7
(g8
g9
NtRp137
(dp138
g12
g29
sg14
S'Liberation Sans'
p139
sg16
I400
sg17
g13
sg18
g13
sg19
S'/usr/share/fonts/truetype/liberation/LiberationSans-Italic.ttf'
p140
sg21
g22
sbag7
(g8
g9
NtRp141
(dp142
g12
g13
sg14
S'DejaVu Sans Mono'
p143
sg16
I700
sg17
g13
sg18
g13
sg19
S'/usr/share/fonts/truetype/ttf-dejavu/DejaVuSansMono-Bold.ttf'
p144
sg21
g22
sbag7
(g8
g9
NtRp145
(dp146
g12
g13
sg14
S'FreeSerif'
p147
sg16
I400
sg17
g13
sg18
g13
sg19
S'/usr/share/fonts/truetype/freefont/FreeSerif.ttf'
p148
sg21
g22
sbag7
(g8
g9
NtRp149
(dp150
g12
g29
sg14
S'Liberation Mono'
p151
sg16
I700
sg17
g13
sg18
g13
sg19
S'/usr/share/fonts/truetype/liberation/LiberationMono-BoldItalic.ttf'
p152
sg21
g22
sbag7
(g8
g9
NtRp153
(dp154
g12
g13
sg14
S'DejaVu Sans'
p155
sg16
I400
sg17
S'condensed'
p156
sg18
g13
sg19
S'/usr/share/fonts/truetype/ttf-dejavu/DejaVuSansCondensed.ttf'
p157
sg21
g22
sbag7
(g8
g9
NtRp158
(dp159
g12
g13
sg14
S'DejaVu Serif'
p160
sg16
I400
sg17
g13
sg18
g13
sg19
S'/usr/share/fonts/truetype/ttf-dejavu/DejaVuSerif.ttf'
p161
sg21
g22
sbag7
(g8
g9
NtRp162
(dp163
g12
g13
sg14
S'wasy10'
p164
sg16
I400
sg17
g13
sg18
g13
sg19
S'/usr/share/fonts/truetype/ttf-lyx/wasy10.ttf'
p165
sg21
g22
sbag7
(g8
g9
NtRp166
(dp167
g12
g126
sg14
S'FreeMono'
p168
sg16
I400
sg17
g13
sg18
g13
sg19
S'/usr/share/fonts/truetype/freefont/FreeMonoOblique.ttf'
p169
sg21
g22
sbag7
(g8
g9
NtRp170
(dp171
g12
g29
sg14
S'DejaVu Serif'
p172
sg16
I700
sg17
g13
sg18
g13
sg19
S'/usr/share/fonts/truetype/ttf-dejavu/DejaVuSerif-BoldItalic.ttf'
p173
sg21
g22
sbag7
(g8
g9
NtRp174
(dp175
g12
g29
sg14
S'rsfs10'
p176
sg16
I400
sg17
g13
sg18
g13
sg19
S'/usr/share/fonts/truetype/ttf-lyx/rsfs10.ttf'
p177
sg21
g22
sbag7
(g8
g9
NtRp178
(dp179
g12
g13
sg14
S'esint10'
p180
sg16
I400
sg17
g13
sg18
g13
sg19
S'/usr/share/fonts/truetype/ttf-lyx/esint10.ttf'
p181
sg21
g22
sbag7
(g8
g9
NtRp182
(dp183
g12
g13
sg14
S'DejaVu Sans Mono'
p184
sg16
I400
sg17
g13
sg18
g13
sg19
S'/usr/share/fonts/truetype/ttf-dejavu/DejaVuSansMono.ttf'
p185
sg21
g22
sbag7
(g8
g9
NtRp186
(dp187
g12
g126
sg14
S'DejaVu Sans Mono'
p188
sg16
I400
sg17
g13
sg18
g13
sg19
S'/usr/share/fonts/truetype/ttf-dejavu/DejaVuSansMono-Oblique.ttf'
p189
sg21
g22
sbag7
(g8
g9
NtRp190
(dp191
g12
g13
sg14
S'Liberation Sans Narrow'
p192
sg16
I400
sg17
g156
sg18
g13
sg19
S'/usr/share/fonts/truetype/liberation/LiberationSansNarrow-Regular.ttf'
p193
sg21
g22
sbag7
(g8
g9
NtRp194
(dp195
g12
g126
sg14
S'DejaVu Sans'
p196
sg16
I400
sg17
g156
sg18
g13
sg19
S'/usr/share/fonts/truetype/ttf-dejavu/DejaVuSansCondensed-Oblique.ttf'
p197
sg21
g22
sbag7
(g8
g9
NtRp198
(dp199
g12
g13
sg14
S'DejaVu Serif'
p200
sg16
I700
sg17
g156
sg18
g13
sg19
S'/usr/share/fonts/truetype/ttf-dejavu/DejaVuSerifCondensed-Bold.ttf'
p201
sg21
g22
sbag7
(g8
g9
NtRp202
(dp203
g12
g13
sg14
S'FreeSerif'
p204
sg16
I700
sg17
g13
sg18
g13
sg19
S'/usr/share/fonts/truetype/freefont/FreeSerifBold.ttf'
p205
sg21
g22
sbag7
(g8
g9
NtRp206
(dp207
g12
g29
sg14
S'Liberation Sans Narrow'
p208
sg16
I400
sg17
g156
sg18
g13
sg19
S'/usr/share/fonts/truetype/liberation/LiberationSansNarrow-Italic.ttf'
p209
sg21
g22
sbag7
(g8
g9
NtRp210
(dp211
g12
g13
sg14
S'DejaVu Serif'
p212
sg16
I700
sg17
g13
sg18
g13
sg19
S'/usr/share/fonts/truetype/ttf-dejavu/DejaVuSerif-Bold.ttf'
p213
sg21
g22
sbag7
(g8
g9
NtRp214
(dp215
g12
g29
sg14
S'DejaVu Serif'
p216
sg16
I400
sg17
g13
sg18
g13
sg19
S'/usr/share/fonts/truetype/ttf-dejavu/DejaVuSerif-Italic.ttf'
p217
sg21
g22
sbag7
(g8
g9
NtRp218
(dp219
g12
g29
sg14
S'DejaVu Serif'
p220
sg16
I400
sg17
g156
sg18
g13
sg19
S'/usr/share/fonts/truetype/ttf-dejavu/DejaVuSerifCondensed-Italic.ttf'
p221
sg21
g22
sbag7
(g8
g9
NtRp222
(dp223
g12
g13
sg14
S'Liberation Sans Narrow'
p224
sg16
I700
sg17
g156
sg18
g13
sg19
S'/usr/share/fonts/truetype/liberation/LiberationSansNarrow-Bold.ttf'
p225
sg21
g22
sbag7
(g8
g9
NtRp226
(dp227
g12
g126
sg14
S'FreeSans'
p228
sg16
I400
sg17
g13
sg18
g13
sg19
S'/usr/share/fonts/truetype/freefont/FreeSansOblique.ttf'
p229
sg21
g22
sbag7
(g8
g9
NtRp230
(dp231
g12
g13
sg14
S'DejaVu Serif'
p232
sg16
I400
sg17
g156
sg18
g13
sg19
S'/usr/share/fonts/truetype/ttf-dejavu/DejaVuSerifCondensed.ttf'
p233
sg21
g22
sbag7
(g8
g9
NtRp234
(dp235
g12
g13
sg14
S'FreeMono'
p236
sg16
I700
sg17
g13
sg18
g13
sg19
S'/usr/share/fonts/truetype/freefont/FreeMonoBold.ttf'
p237
sg21
g22
sbag7
(g8
g9
NtRp238
(dp239
g12
g29
sg14
S'Liberation Sans'
p240
sg16
I700
sg17
g13
sg18
g13
sg19
S'/usr/share/fonts/truetype/liberation/LiberationSans-BoldItalic.ttf'
p241
sg21
g22
sbag7
(g8
g9
NtRp242
(dp243
g12
g13
sg14
S'Liberation Sans'
p244
sg16
I700
sg17
g13
sg18
g13
sg19
S'/usr/share/fonts/truetype/liberation/LiberationSans-Bold.ttf'
p245
sg21
g22
sbag7
(g8
g9
NtRp246
(dp247
g12
g13
sg14
S'FreeMono'
p248
sg16
I400
sg17
g13
sg18
g13
sg19
S'/usr/share/fonts/truetype/freefont/FreeMono.ttf'
p249
sg21
g22
sbag7
(g8
g9
NtRp250
(dp251
g12
g126
sg14
S'FreeSans'
p252
sg16
I700
sg17
g13
sg18
g13
sg19
S'/usr/share/fonts/truetype/freefont/FreeSansBoldOblique.ttf'
p253
sg21
g22
sbag7
(g8
g9
NtRp254
(dp255
g12
g13
sg14
S'Liberation Mono'
p256
sg16
I400
sg17
g13
sg18
g13
sg19
S'/usr/share/fonts/truetype/liberation/LiberationMono-Regular.ttf'
p257
sg21
g22
sbag7
(g8
g9
NtRp258
(dp259
g12
g13
sg14
S'DejaVu Sans'
p260
sg16
I700
sg17
g13
sg18
g13
sg19
S'/usr/share/fonts/truetype/ttf-dejavu/DejaVuSans-Bold.ttf'
p261
sg21
g22
sbag7
(g8
g9
NtRp262
(dp263
g12
g29
sg14
S'FreeSerif'
p264
sg16
I700
sg17
g13
sg18
g13
sg19
S'/usr/share/fonts/truetype/freefont/FreeSerifBoldItalic.ttf'
p265
sg21
g22
sbag7
(g8
g9
NtRp266
(dp267
g12
g29
sg14
S'DejaVu Serif'
p268
sg16
I700
sg17
g156
sg18
g13
sg19
S'/usr/share/fonts/truetype/ttf-dejavu/DejaVuSerifCondensed-BoldItalic.ttf'
p269
sg21
g22
sbag7
(g8
g9
NtRp270
(dp271
g12
g13
sg14
S'Liberation Mono'
p272
sg16
I700
sg17
g13
sg18
g13
sg19
S'/usr/share/fonts/truetype/liberation/LiberationMono-Bold.ttf'
p273
sg21
g22
sbag7
(g8
g9
NtRp274
(dp275
g12
g126
sg14
S'FreeMono'
p276
sg16
I700
sg17
g13
sg18
g13
sg19
S'/usr/share/fonts/truetype/freefont/FreeMonoBoldOblique.ttf'
p277
sg21
g22
sbag7
(g8
g9
NtRp278
(dp279
g12
g29
sg14
S'Liberation Serif'
p280
sg16
I400
sg17
g13
sg18
g13
sg19
S'/usr/share/fonts/truetype/liberation/LiberationSerif-Italic.ttf'
p281
sg21
g22
sbag7
(g8
g9
NtRp282
(dp283
g12
g13
sg14
S'FreeSans'
p284
sg16
I700
sg17
g13
sg18
g13
sg19
S'/usr/share/fonts/truetype/freefont/FreeSansBold.ttf'
p285
sg21
g22
sbag7
(g8
g9
NtRp286
(dp287
g12
g13
sg14
S'eufm10'
p288
sg16
I400
sg17
g13
sg18
g13
sg19
S'/usr/share/fonts/truetype/ttf-lyx/eufm10.ttf'
p289
sg21
g22
sbag7
(g8
g9
NtRp290
(dp291
g12
g13
sg14
S'FreeSans'
p292
sg16
I400
sg17
g13
sg18
g13
sg19
S'/usr/share/fonts/truetype/freefont/FreeSans.ttf'
p293
sg21
g22
sbag7
(g8
g9
NtRp294
(dp295
g12
g126
sg14
S'DejaVu Sans'
p296
sg16
I700
sg17
g13
sg18
g13
sg19
S'/usr/share/fonts/truetype/ttf-dejavu/DejaVuSans-BoldOblique.ttf'
p297
sg21
g22
sbag7
(g8
g9
NtRp298
(dp299
g12
g13
sg14
S'msam10'
p300
sg16
I400
sg17
g13
sg18
g13
sg19
S'/usr/share/fonts/truetype/ttf-lyx/msam10.ttf'
p301
sg21
g22
sbag7
(g8
g9
NtRp302
(dp303
g12
g13
sg14
S'Untitled1'
p304
sg16
I400
sg17
g13
sg18
g13
sg19
S'/usr/share/fonts/truetype/freefont/Untitled1.ttf'
p305
sg21
g22
sbag7
(g8
g9
NtRp306
(dp307
g12
g29
sg14
S'Liberation Mono'
p308
sg16
I400
sg17
g13
sg18
g13
sg19
S'/usr/share/fonts/truetype/liberation/LiberationMono-Italic.ttf'
p309
sg21
g22
sbag7
(g8
g9
NtRp310
(dp311
g12
g126
sg14
S'DejaVu Sans Mono'
p312
sg16
I700
sg17
g13
sg18
g13
sg19
S'/usr/share/fonts/truetype/ttf-dejavu/DejaVuSansMono-BoldOblique.ttf'
p313
sg21
g22
sbag7
(g8
g9
NtRp314
(dp315
g12
g29
sg14
S'FreeSerif'
p316
sg16
I400
sg17
g13
sg18
g13
sg19
S'/usr/share/fonts/truetype/freefont/FreeSerifItalic.ttf'
p317
sg21
g22
sbag7
(g8
g9
NtRp318
(dp319
g12
g126
sg14
S'DejaVu Sans'
p320
sg16
I700
sg17
g156
sg18
g13
sg19
S'/usr/share/fonts/truetype/ttf-dejavu/DejaVuSansCondensed-BoldOblique.ttf'
p321
sg21
g22
sbag7
(g8
g9
NtRp322
(dp323
g12
g13
sg14
S'DejaVu Sans'
p324
sg16
I700
sg17
g156
sg18
g13
sg19
S'/usr/share/fonts/truetype/ttf-dejavu/DejaVuSansCondensed-Bold.ttf'
p325
sg21
g22
sbag7
(g8
g9
NtRp326
(dp327
g12
g29
sg14
S'Liberation Sans Narrow'
p328
sg16
I700
sg17
g156
sg18
g13
sg19
S'/usr/share/fonts/truetype/liberation/LiberationSansNarrow-BoldItalic.ttf'
p329
sg21
g22
sbag7
(g8
g9
NtRp330
(dp331
g12
g13
sg14
S'msbm10'
p332
sg16
I400
sg17
g13
sg18
g13
sg19
S'/usr/share/fonts/truetype/ttf-lyx/msbm10.ttf'
p333
sg21
g22
sbag7
(g8
g9
NtRp334
(dp335
g12
g13
sg14
S'DejaVu Sans'
p336
sg16
I200
sg17
g13
sg18
g13
sg19
S'/usr/share/fonts/truetype/ttf-dejavu/DejaVuSans-ExtraLight.ttf'
p337
sg21
g22
sbag7
(g8
g9
NtRp338
(dp339
g12
g13
sg14
S'Liberation Serif'
p340
sg16
I400
sg17
g13
sg18
g13
sg19
S'/usr/share/fonts/truetype/liberation/LiberationSerif-Regular.ttf'
p341
sg21
g22
sbasS'defaultFamily'
p342
(dp343
S'afm'
p344
S'Helvetica'
p345
sS'ttf'
p346
S'Bitstream Vera Sans'
p347
ssS'ttffiles'
p348
(lp349
S'/usr/share/matplotlib/mpl-data/fonts/ttf/cmb10.ttf'
p350
aS'/usr/share/matplotlib/mpl-data/fonts/ttf/cmex10.ttf'
p351
aS'/usr/share/matplotlib/mpl-data/fonts/ttf/STIXNonUniIta.ttf'
p352
aS'/usr/share/matplotlib/mpl-data/fonts/ttf/STIXSizOneSymReg.ttf'
p353
aS'/usr/share/matplotlib/mpl-data/fonts/ttf/STIXSizThreeSymReg.ttf'
p354
aS'/usr/share/matplotlib/mpl-data/fonts/ttf/STIXSizTwoSymBol.ttf'
p355
aS'/usr/share/matplotlib/mpl-data/fonts/ttf/cmtt10.ttf'
p356
aS'/usr/share/matplotlib/mpl-data/fonts/ttf/STIXGeneral.ttf'
p357
aS'/usr/share/matplotlib/mpl-data/fonts/ttf/STIXNonUniBolIta.ttf'
p358
aS'/usr/share/matplotlib/mpl-data/fonts/ttf/STIXNonUni.ttf'
p359
aS'/usr/share/matplotlib/mpl-data/fonts/ttf/STIXSizFiveSymReg.ttf'
p360
aS'/usr/share/matplotlib/mpl-data/fonts/ttf/STIXSizOneSymBol.ttf'
p361
aS'/usr/share/matplotlib/mpl-data/fonts/ttf/STIXGeneralBol.ttf'
p362
aS'/usr/share/matplotlib/mpl-data/fonts/ttf/cmr10.ttf'
p363
aS'/usr/share/matplotlib/mpl-data/fonts/ttf/STIXSizTwoSymReg.ttf'
p364
aS'/usr/share/matplotlib/mpl-data/fonts/ttf/STIXSizFourSymReg.ttf'
p365
aS'/usr/share/matplotlib/mpl-data/fonts/ttf/cmsy10.ttf'
p366
aS'/usr/share/matplotlib/mpl-data/fonts/ttf/STIXSizThreeSymBol.ttf'
p367
aS'/usr/share/matplotlib/mpl-data/fonts/ttf/cmss10.ttf'
p368
aS'/usr/share/matplotlib/mpl-data/fonts/ttf/STIXSizFourSymBol.ttf'
p369
aS'/usr/share/matplotlib/mpl-data/fonts/ttf/STIXGeneralItalic.ttf'
p370
aS'/usr/share/matplotlib/mpl-data/fonts/ttf/cmmi10.ttf'
p371
aS'/usr/share/matplotlib/mpl-data/fonts/ttf/STIXNonUniBol.ttf'
p372
aS'/usr/share/matplotlib/mpl-data/fonts/ttf/STIXGeneralBolIta.ttf'
p373
aS'/usr/share/fonts/truetype/liberation/LiberationSerif-BoldItalic.ttf'
p374
aS'/usr/share/fonts/truetype/ttf-dejavu/DejaVuSans.ttf'
p375
aS'/usr/share/fonts/truetype/ttf-dejavu/DejaVuSans-Oblique.ttf'
p376
aS'/usr/share/fonts/truetype/liberation/LiberationSans-Regular.ttf'
p377
aS'/usr/share/fonts/truetype/ttf-lyx/cmsy10.ttf'
p378
aS'/usr/share/fonts/truetype/liberation/LiberationSerif-Bold.ttf'
p379
aS'/usr/share/fonts/truetype/liberation/LiberationSans-Italic.ttf'
p380
aS'/usr/share/fonts/truetype/ttf-dejavu/DejaVuSansMono-Bold.ttf'
p381
aS'/usr/share/fonts/truetype/freefont/FreeSerif.ttf'
p382
aS'/usr/share/fonts/truetype/liberation/LiberationMono-BoldItalic.ttf'
p383
aS'/usr/share/fonts/truetype/ttf-dejavu/DejaVuSansCondensed.ttf'
p384
aS'/usr/share/fonts/truetype/ttf-dejavu/DejaVuSerif.ttf'
p385
aS'/usr/share/fonts/truetype/ttf-lyx/wasy10.ttf'
p386
aS'/usr/share/fonts/truetype/freefont/FreeMonoOblique.ttf'
p387
aS'/usr/share/fonts/truetype/ttf-dejavu/DejaVuSerif-BoldItalic.ttf'
p388
aS'/usr/share/fonts/truetype/ttf-lyx/rsfs10.ttf'
p389
aS'/usr/share/fonts/truetype/ttf-lyx/esint10.ttf'
p390
aS'/usr/share/fonts/truetype/ttf-dejavu/DejaVuSansMono.ttf'
p391
aS'/usr/share/fonts/truetype/ttf-lyx/cmmi10.ttf'
p392
aS'/usr/share/fonts/truetype/ttf-dejavu/DejaVuSansMono-Oblique.ttf'
p393
aS'/usr/share/fonts/truetype/liberation/LiberationSansNarrow-Regular.ttf'
p394
aS'/usr/share/fonts/truetype/ttf-dejavu/DejaVuSansCondensed-Oblique.ttf'
p395
aS'/usr/share/fonts/truetype/ttf-dejavu/DejaVuSerifCondensed-Bold.ttf'
p396
aS'/usr/share/fonts/truetype/freefont/FreeSerifBold.ttf'
p397
aS'/usr/share/fonts/truetype/liberation/LiberationSansNarrow-Italic.ttf'
p398
aS'/usr/share/fonts/truetype/ttf-dejavu/DejaVuSerif-Bold.ttf'
p399
aS'/usr/share/fonts/truetype/ttf-dejavu/DejaVuSerif-Italic.ttf'
p400
aS'/usr/share/fonts/truetype/ttf-dejavu/DejaVuSerifCondensed-Italic.ttf'
p401
aS'/usr/share/fonts/truetype/liberation/LiberationSansNarrow-Bold.ttf'
p402
aS'/usr/share/fonts/truetype/freefont/FreeSansOblique.ttf'
p403
aS'/usr/share/fonts/truetype/ttf-dejavu/DejaVuSerifCondensed.ttf'
p404
aS'/usr/share/fonts/truetype/freefont/FreeMonoBold.ttf'
p405
aS'/usr/share/fonts/truetype/liberation/LiberationSans-BoldItalic.ttf'
p406
aS'/usr/share/fonts/truetype/liberation/LiberationSans-Bold.ttf'
p407
aS'/usr/share/fonts/truetype/freefont/FreeMono.ttf'
p408
aS'/usr/share/fonts/truetype/freefont/FreeSansBoldOblique.ttf'
p409
aS'/usr/share/fonts/truetype/liberation/LiberationMono-Regular.ttf'
p410
aS'/usr/share/fonts/truetype/ttf-dejavu/DejaVuSans-Bold.ttf'
p411
aS'/usr/share/fonts/truetype/freefont/FreeSerifBoldItalic.ttf'
p412
aS'/usr/share/fonts/truetype/ttf-dejavu/DejaVuSerifCondensed-BoldItalic.ttf'
p413
aS'/usr/share/fonts/truetype/liberation/LiberationMono-Bold.ttf'
p414
aS'/usr/share/fonts/truetype/freefont/FreeMonoBoldOblique.ttf'
p415
aS'/usr/share/fonts/truetype/liberation/LiberationSerif-Italic.ttf'
p416
aS'/usr/share/fonts/truetype/freefont/FreeSansBold.ttf'
p417
aS'/usr/share/fonts/truetype/ttf-lyx/eufm10.ttf'
p418
aS'/usr/share/fonts/truetype/freefont/FreeSans.ttf'
p419
aS'/usr/share/fonts/truetype/ttf-dejavu/DejaVuSans-BoldOblique.ttf'
p420
aS'/usr/share/fonts/truetype/ttf-lyx/msam10.ttf'
p421
aS'/usr/share/fonts/truetype/ttf-lyx/cmr10.ttf'
p422
aS'/usr/share/fonts/truetype/freefont/Untitled1.ttf'
p423
aS'/usr/share/fonts/truetype/liberation/LiberationMono-Italic.ttf'
p424
aS'/usr/share/fonts/truetype/ttf-dejavu/DejaVuSansMono-BoldOblique.ttf'
p425
aS'/usr/share/fonts/truetype/freefont/FreeSerifItalic.ttf'
p426
aS'/usr/share/fonts/truetype/ttf-dejavu/DejaVuSansCondensed-BoldOblique.ttf'
p427
aS'/usr/share/fonts/truetype/ttf-dejavu/DejaVuSansCondensed-Bold.ttf'
p428
aS'/usr/share/fonts/truetype/liberation/LiberationSansNarrow-BoldItalic.ttf'
p429
aS'/usr/share/fonts/truetype/ttf-lyx/msbm10.ttf'
p430
aS'/usr/share/fonts/truetype/ttf-dejavu/DejaVuSans-ExtraLight.ttf'
p431
aS'/usr/share/fonts/truetype/liberation/LiberationSerif-Regular.ttf'
p432
aS'/usr/share/fonts/truetype/ttf-lyx/cmex10.ttf'
p433
asS'_FontManager__default_weight'
p434
g13
sS'_version'
p435
I7
sS'ttf_lookup_cache'
p436
(dp437
sS'default_size'
p438
NsS'defaultFont'
p439
(dp440
g344
Nsg346
g350
ssS'afmfiles'
p441
(lp442
S'/usr/share/matplotlib/mpl-data/fonts/afm/pzcmi8a.afm'
p443
aS'/usr/share/matplotlib/mpl-data/fonts/afm/phvl8a.afm'
p444
aS'/usr/share/matplotlib/mpl-data/fonts/afm/putbi8a.afm'
p445
aS'/usr/share/matplotlib/mpl-data/fonts/pdfcorefonts/Helvetica-BoldOblique.afm'
p446
aS'/usr/share/matplotlib/mpl-data/fonts/afm/phvro8an.afm'
p447
aS'/usr/share/matplotlib/mpl-data/fonts/afm/pbkd8a.afm'
p448
aS'/usr/share/matplotlib/mpl-data/fonts/afm/pcrbo8a.afm'
p449
aS'/usr/share/matplotlib/mpl-data/fonts/pdfcorefonts/Helvetica-Bold.afm'
p450
aS'/usr/share/matplotlib/mpl-data/fonts/pdfcorefonts/Times-BoldItalic.afm'
p451
aS'/usr/share/matplotlib/mpl-data/fonts/afm/pcrb8a.afm'
p452
aS'/usr/share/matplotlib/mpl-data/fonts/afm/pagdo8a.afm'
p453
aS'/usr/share/matplotlib/mpl-data/fonts/afm/pcrr8a.afm'
p454
aS'/usr/share/matplotlib/mpl-data/fonts/afm/pncb8a.afm'
p455
aS'/usr/share/matplotlib/mpl-data/fonts/pdfcorefonts/Courier-Bold.afm'
p456
aS'/usr/share/matplotlib/mpl-data/fonts/afm/pncbi8a.afm'
p457
aS'/usr/share/matplotlib/mpl-data/fonts/afm/cmex10.afm'
p458
aS'/usr/share/matplotlib/mpl-data/fonts/afm/cmtt10.afm'
p459
aS'/usr/share/matplotlib/mpl-data/fonts/pdfcorefonts/Symbol.afm'
p460
aS'/usr/share/matplotlib/mpl-data/fonts/afm/phvr8an.afm'
p461
aS'/usr/share/matplotlib/mpl-data/fonts/afm/phvro8a.afm'
p462
aS'/usr/share/matplotlib/mpl-data/fonts/afm/ptmr8a.afm'
p463
aS'/usr/share/matplotlib/mpl-data/fonts/pdfcorefonts/Helvetica-Oblique.afm'
p464
aS'/usr/share/matplotlib/mpl-data/fonts/afm/pplbi8a.afm'
p465
aS'/usr/share/matplotlib/mpl-data/fonts/afm/phvb8an.afm'
p466
aS'/usr/share/matplotlib/mpl-data/fonts/afm/cmsy10.afm'
p467
aS'/usr/share/matplotlib/mpl-data/fonts/afm/pagk8a.afm'
p468
aS'/usr/share/matplotlib/mpl-data/fonts/pdfcorefonts/Courier-BoldOblique.afm'
p469
aS'/usr/share/matplotlib/mpl-data/fonts/afm/putb8a.afm'
p470
aS'/usr/share/matplotlib/mpl-data/fonts/afm/cmmi10.afm'
p471
aS'/usr/share/matplotlib/mpl-data/fonts/afm/pagko8a.afm'
p472
aS'/usr/share/matplotlib/mpl-data/fonts/afm/pbkdi8a.afm'
p473
aS'/usr/share/matplotlib/mpl-data/fonts/afm/phvbo8a.afm'
p474
aS'/usr/share/matplotlib/mpl-data/fonts/afm/cmr10.afm'
p475
aS'/usr/share/matplotlib/mpl-data/fonts/pdfcorefonts/Times-Bold.afm'
p476
aS'/usr/share/matplotlib/mpl-data/fonts/afm/ptmb8a.afm'
p477
aS'/usr/share/matplotlib/mpl-data/fonts/afm/phvlo8a.afm'
p478
aS'/usr/share/matplotlib/mpl-data/fonts/afm/phvb8a.afm'
p479
aS'/usr/share/matplotlib/mpl-data/fonts/afm/pplb8a.afm'
p480
aS'/usr/share/matplotlib/mpl-data/fonts/afm/pzdr.afm'
p481
aS'/usr/share/matplotlib/mpl-data/fonts/afm/ptmri8a.afm'
p482
aS'/usr/share/matplotlib/mpl-data/fonts/afm/pplr8a.afm'
p483
aS'/usr/share/matplotlib/mpl-data/fonts/afm/pbkl8a.afm'
p484
aS'/usr/share/matplotlib/mpl-data/fonts/afm/pcrro8a.afm'
p485
aS'/usr/share/matplotlib/mpl-data/fonts/pdfcorefonts/ZapfDingbats.afm'
p486
aS'/usr/share/matplotlib/mpl-data/fonts/afm/psyr.afm'
p487
aS'/usr/share/matplotlib/mpl-data/fonts/pdfcorefonts/Helvetica.afm'
p488
aS'/usr/share/matplotlib/mpl-data/fonts/afm/pplri8a.afm'
p489
aS'/usr/share/matplotlib/mpl-data/fonts/afm/ptmbi8a.afm'
p490
aS'/usr/share/matplotlib/mpl-data/fonts/afm/pbkli8a.afm'
p491
aS'/usr/share/matplotlib/mpl-data/fonts/pdfcorefonts/Courier-Oblique.afm'
p492
aS'/usr/share/matplotlib/mpl-data/fonts/afm/putr8a.afm'
p493
aS'/usr/share/matplotlib/mpl-data/fonts/afm/pagd8a.afm'
p494
aS'/usr/share/matplotlib/mpl-data/fonts/afm/pncr8a.afm'
p495
aS'/usr/share/matplotlib/mpl-data/fonts/afm/phvbo8an.afm'
p496
aS'/usr/share/matplotlib/mpl-data/fonts/pdfcorefonts/Times-Italic.afm'
p497
aS'/usr/share/matplotlib/mpl-data/fonts/pdfcorefonts/Times-Roman.afm'
p498
aS'/usr/share/matplotlib/mpl-data/fonts/afm/putri8a.afm'
p499
aS'/usr/share/matplotlib/mpl-data/fonts/pdfcorefonts/Courier.afm'
p500
aS'/usr/share/matplotlib/mpl-data/fonts/afm/phvr8a.afm'
p501
aS'/usr/share/matplotlib/mpl-data/fonts/afm/pncri8a.afm'
p502
aS'/usr/share/fonts/type1/gsfonts/n021024l.afm'
p503
aS'/usr/share/fonts/type1/gsfonts/n019024l.afm'
p504
aS'/usr/share/fonts/type1/gsfonts/n021004l.afm'
p505
aS'/usr/share/fonts/X11/Type1/lmtto10.afm'
p506
aS'/usr/share/fonts/X11/Type1/lmtt10.afm'
p507
aS'/usr/share/fonts/type1/gsfonts/s050000l.afm'
p508
aS'/usr/share/fonts/type1/gsfonts/d050000l.afm'
p509
aS'/usr/share/fonts/type1/gsfonts/p052004l.afm'
p510
aS'/usr/share/fonts/X11/Type1/lmvtko10.afm'
p511
aS'/usr/share/fonts/X11/Type1/lmbx10.afm'
p512
aS'/usr/share/fonts/X11/Type1/lmssqo8.afm'
p513
aS'/usr/share/fonts/type1/gsfonts/b018012l.afm'
p514
aS'/usr/share/fonts/type1/gsfonts/n022003l.afm'
p515
aS'/usr/share/fonts/type1/gsfonts/c059013l.afm'
p516
aS'/usr/share/fonts/type1/gsfonts/a010033l.afm'
p517
aS'/usr/share/fonts/type1/gsfonts/n019044l.afm'
p518
aS'/usr/share/fonts/type1/gsfonts/z003034l.afm'
p519
aS'/usr/share/fonts/X11/Type1/lmtcsc10.afm'
p520
aS'/usr/share/fonts/type1/gsfonts/n022024l.afm'
p521
aS'/usr/share/fonts/X11/Type1/lmtlc10.afm'
p522
aS'/usr/share/fonts/type1/gsfonts/c059033l.afm'
p523
aS'/usr/share/fonts/X11/Type1/lmcsco10.afm'
p524
aS'/usr/share/fonts/X11/Type1/lmssbx10.afm'
p525
aS'/usr/share/fonts/X11/Type1/lmvtto10.afm'
p526
aS'/usr/share/fonts/X11/Type1/lmdunh10.afm'
p527
aS'/usr/share/fonts/X11/Type1/lmss10.afm'
p528
aS'/usr/share/fonts/type1/gsfonts/n019064l.afm'
p529
aS'/usr/share/fonts/type1/gsfonts/n019003l.afm'
p530
aS'/usr/share/fonts/type1/gsfonts/p052024l.afm'
p531
aS'/usr/share/fonts/type1/gsfonts/b018035l.afm'
p532
aS'/usr/share/fonts/X11/Type1/lmvtt10.afm'
p533
aS'/usr/share/fonts/X11/Type1/lmduno10.afm'
p534
aS'/usr/share/fonts/type1/gsfonts/a010013l.afm'
p535
aS'/usr/share/fonts/X11/Type1/lmssdo10.afm'
p536
aS'/usr/share/fonts/type1/gsfonts/n022004l.afm'
p537
aS'/usr/share/fonts/X11/Type1/lmssq8.afm'
p538
aS'/usr/share/fonts/X11/Type1/lmtcso10.afm'
p539
aS'/usr/share/fonts/X11/Type1/lmtti10.afm'
p540
aS'/usr/share/fonts/X11/Type1/lmro10.afm'
p541
aS'/usr/share/fonts/type1/gsfonts/n021003l.afm'
p542
aS'/usr/share/fonts/type1/gsfonts/n019043l.afm'
p543
aS'/usr/share/fonts/X11/Type1/lmssdc10.afm'
p544
aS'/usr/share/fonts/X11/Type1/lmcsc10.afm'
p545
aS'/usr/share/fonts/type1/gsfonts/n019023l.afm'
p546
aS'/usr/share/fonts/X11/Type1/lmtl10.afm'
p547
aS'/usr/share/fonts/X11/Type1/lmb10.afm'
p548
aS'/usr/share/fonts/X11/Type1/lmsso10.afm'
p549
aS'/usr/share/fonts/X11/Type1/lmbo10.afm'
p550
aS'/usr/share/fonts/type1/gsfonts/p052023l.afm'
p551
aS'/usr/share/fonts/X11/Type1/lmri10.afm'
p552
aS'/usr/share/fonts/type1/gsfonts/n019004l.afm'
p553
aS'/usr/share/fonts/X11/Type1/lmssqbo8.afm'
p554
aS'/usr/share/fonts/type1/gsfonts/p052003l.afm'
p555
aS'/usr/share/fonts/X11/Type1/lmr10.afm'
p556
aS'/usr/share/fonts/type1/gsfonts/a010015l.afm'
p557
aS'/usr/share/fonts/X11/Type1/lmssqbx8.afm'
p558
aS'/usr/share/fonts/X11/Type1/lmbxi10.afm'
p559
aS'/usr/share/fonts/X11/Type1/lmtk10.afm'
p560
aS'/usr/share/fonts/type1/gsfonts/c059036l.afm'
p561
aS'/usr/share/fonts/type1/gsfonts/b018032l.afm'
p562
aS'/usr/share/fonts/X11/Type1/lmvtk10.afm'
p563
aS'/usr/share/fonts/type1/gsfonts/c059016l.afm'
p564
aS'/usr/share/fonts/X11/Type1/lmbxo10.afm'
p565
aS'/usr/share/fonts/X11/Type1/lmtko10.afm'
p566
aS'/usr/share/fonts/type1/gsfonts/n022023l.afm'
p567
aS'/usr/share/fonts/X11/Type1/lmtlco10.afm'
p568
aS'/usr/share/fonts/type1/gsfonts/n021023l.afm'
p569
aS'/usr/share/fonts/X11/Type1/lmtlo10.afm'
p570
aS'/usr/share/fonts/X11/Type1/lmssbo10.afm'
p571
aS'/usr/share/fonts/X11/Type1/lmvtl10.afm'
p572
aS'/usr/share/fonts/type1/gsfonts/a010035l.afm'
p573
aS'/usr/share/fonts/type1/gsfonts/n019063l.afm'
p574
aS'/usr/share/fonts/X11/Type1/lmvtlo10.afm'
p575
aS'/usr/share/fonts/type1/gsfonts/b018015l.afm'
p576
aS'/usr/share/fonts/X11/Type1/lmu10.afm'
p577
asS'afmlist'
p578
(lp579
g7
(g8
g9
NtRp580
(dp581
g12
g29
sg14
S'ITC Zapf Chancery'
p582
sg16
I500
sg17
g13
sg18
g13
sg19
g443
sg21
g22
sbag7
(g8
g9
NtRp583
(dp584
g12
g13
sg14
S'Helvetica'
p585
sg16
I200
sg17
g13
sg18
g13
sg19
g444
sg21
g22
sbag7
(g8
g9
NtRp586
(dp587
g12
g29
sg14
S'Utopia'
p588
sg16
I700
sg17
g13
sg18
g13
sg19
g445
sg21
g22
sbag7
(g8
g9
NtRp589
(dp590
g12
g29
sg14
S'Helvetica'
p591
sg16
I700
sg17
g13
sg18
g13
sg19
g446
sg21
g22
sbag7
(g8
g9
NtRp592
(dp593
g12
g29
sg14
S'Helvetica'
p594
sg16
I500
sg17
g156
sg18
g13
sg19
g447
sg21
g22
sbag7
(g8
g9
NtRp595
(dp596
g12
g13
sg14
S'ITC Bookman'
p597
sg16
I600
sg17
g13
sg18
g13
sg19
g448
sg21
g22
sbag7
(g8
g9
NtRp598
(dp599
g12
g29
sg14
S'Courier'
p600
sg16
I700
sg17
g13
sg18
g13
sg19
g449
sg21
g22
sbag7
(g8
g9
NtRp601
(dp602
g12
g13
sg14
S'Helvetica'
p603
sg16
I700
sg17
g13
sg18
g13
sg19
g450
sg21
g22
sbag7
(g8
g9
NtRp604
(dp605
g12
g29
sg14
S'Times'
p606
sg16
I700
sg17
g13
sg18
g13
sg19
g451
sg21
g22
sbag7
(g8
g9
NtRp607
(dp608
g12
g13
sg14
S'Courier'
p609
sg16
I700
sg17
g13
sg18
g13
sg19
g452
sg21
g22
sbag7
(g8
g9
NtRp610
(dp611
g12
g29
sg14
S'ITC Avant Garde Gothic'
p612
sg16
I600
sg17
g13
sg18
g13
sg19
g453
sg21
g22
sbag7
(g8
g9
NtRp613
(dp614
g12
g13
sg14
S'Courier'
p615
sg16
I500
sg17
g13
sg18
g13
sg19
g454
sg21
g22
sbag7
(g8
g9
NtRp616
(dp617
g12
g13
sg14
S'New Century Schoolbook'
p618
sg16
I700
sg17
g13
sg18
g13
sg19
g455
sg21
g22
sbag7
(g8
g9
NtRp619
(dp620
g12
g13
sg14
S'Courier'
p621
sg16
I700
sg17
g13
sg18
g13
sg19
g456
sg21
g22
sbag7
(g8
g9
NtRp622
(dp623
g12
g29
sg14
S'New Century Schoolbook'
p624
sg16
I700
sg17
g13
sg18
g13
sg19
g457
sg21
g22
sbag7
(g8
g9
NtRp625
(dp626
g12
g13
sg14
S'Computer Modern'
p627
sg16
I500
sg17
g13
sg18
g13
sg19
g458
sg21
g22
sbag7
(g8
g9
NtRp628
(dp629
g12
g13
sg14
S'Computer Modern'
p630
sg16
I500
sg17
g13
sg18
g13
sg19
g459
sg21
g22
sbag7
(g8
g9
NtRp631
(dp632
g12
g13
sg14
S'Symbol'
p633
sg16
I500
sg17
g13
sg18
g13
sg19
g460
sg21
g22
sbag7
(g8
g9
NtRp634
(dp635
g12
g13
sg14
S'Helvetica'
p636
sg16
I500
sg17
g156
sg18
g13
sg19
g461
sg21
g22
sbag7
(g8
g9
NtRp637
(dp638
g12
g29
sg14
S'Helvetica'
p639
sg16
I500
sg17
g13
sg18
g13
sg19
g462
sg21
g22
sbag7
(g8
g9
NtRp640
(dp641
g12
g13
sg14
S'Times'
p642
sg16
I500
sg17
g13
sg18
g13
sg19
g463
sg21
g22
sbag7
(g8
g9
NtRp643
(dp644
g12
g29
sg14
S'Helvetica'
p645
sg16
I500
sg17
g13
sg18
g13
sg19
g464
sg21
g22
sbag7
(g8
g9
NtRp646
(dp647
g12
g29
sg14
S'Palatino'
p648
sg16
I700
sg17
g13
sg18
g13
sg19
g465
sg21
g22
sbag7
(g8
g9
NtRp649
(dp650
g12
g13
sg14
S'Helvetica'
p651
sg16
I700
sg17
g156
sg18
g13
sg19
g466
sg21
g22
sbag7
(g8
g9
NtRp652
(dp653
g12
g29
sg14
S'Computer Modern'
p654
sg16
I500
sg17
g13
sg18
g13
sg19
g467
sg21
g22
sbag7
(g8
g9
NtRp655
(dp656
g12
g13
sg14
S'ITC Avant Garde Gothic'
p657
sg16
I400
sg17
g13
sg18
g13
sg19
g468
sg21
g22
sbag7
(g8
g9
NtRp658
(dp659
g12
g29
sg14
S'Courier'
p660
sg16
I700
sg17
g13
sg18
g13
sg19
g469
sg21
g22
sbag7
(g8
g9
NtRp661
(dp662
g12
g13
sg14
S'Utopia'
p663
sg16
I700
sg17
g13
sg18
g13
sg19
g470
sg21
g22
sbag7
(g8
g9
NtRp664
(dp665
g12
g29
sg14
S'Computer Modern'
p666
sg16
I500
sg17
g13
sg18
g13
sg19
g471
sg21
g22
sbag7
(g8
g9
NtRp667
(dp668
g12
g29
sg14
S'ITC Avant Garde Gothic'
p669
sg16
I400
sg17
g13
sg18
g13
sg19
g472
sg21
g22
sbag7
(g8
g9
NtRp670
(dp671
g12
g29
sg14
S'ITC Bookman'
p672
sg16
I600
sg17
g13
sg18
g13
sg19
g473
sg21
g22
sbag7
(g8
g9
NtRp673
(dp674
g12
g29
sg14
S'Helvetica'
p675
sg16
I700
sg17
g13
sg18
g13
sg19
g474
sg21
g22
sbag7
(g8
g9
NtRp676
(dp677
g12
g13
sg14
S'Computer Modern'
p678
sg16
I500
sg17
g13
sg18
g13
sg19
g475
sg21
g22
sbag7
(g8
g9
NtRp679
(dp680
g12
g13
sg14
S'Times'
p681
sg16
I700
sg17
g13
sg18
g13
sg19
g476
sg21
g22
sbag7
(g8
g9
NtRp682
(dp683
g12
g13
sg14
S'Times'
p684
sg16
I700
sg17
g13
sg18
g13
sg19
g477
sg21
g22
sbag7
(g8
g9
NtRp685
(dp686
g12
g29
sg14
S'Helvetica'
p687
sg16
I200
sg17
g13
sg18
g13
sg19
g478
sg21
g22
sbag7
(g8
g9
NtRp688
(dp689
g12
g13
sg14
S'Helvetica'
p690
sg16
I700
sg17
g13
sg18
g13
sg19
g479
sg21
g22
sbag7
(g8
g9
NtRp691
(dp692
g12
g13
sg14
S'Palatino'
p693
sg16
I700
sg17
g13
sg18
g13
sg19
g480
sg21
g22
sbag7
(g8
g9
NtRp694
(dp695
g12
g13
sg14
S'ITC Zapf Dingbats'
p696
sg16
I500
sg17
g13
sg18
g13
sg19
g481
sg21
g22
sbag7
(g8
g9
NtRp697
(dp698
g12
g29
sg14
S'Times'
p699
sg16
I500
sg17
g13
sg18
g13
sg19
g482
sg21
g22
sbag7
(g8
g9
NtRp700
(dp701
g12
g13
sg14
S'Palatino'
p702
sg16
I500
sg17
g13
sg18
g13
sg19
g483
sg21
g22
sbag7
(g8
g9
NtRp703
(dp704
g12
g13
sg14
S'ITC Bookman'
p705
sg16
I200
sg17
g13
sg18
g13
sg19
g484
sg21
g22
sbag7
(g8
g9
NtRp706
(dp707
g12
g29
sg14
S'Courier'
p708
sg16
I500
sg17
g13
sg18
g13
sg19
g485
sg21
g22
sbag7
(g8
g9
NtRp709
(dp710
g12
g13
sg14
S'ZapfDingbats'
p711
sg16
I500
sg17
g13
sg18
g13
sg19
g486
sg21
g22
sbag7
(g8
g9
NtRp712
(dp713
g12
g13
sg14
S'Symbol'
p714
sg16
I500
sg17
g13
sg18
g13
sg19
g487
sg21
g22
sbag7
(g8
g9
NtRp715
(dp716
g12
g13
sg14
S'Helvetica'
p717
sg16
I500
sg17
g13
sg18
g13
sg19
g488
sg21
g22
sbag7
(g8
g9
NtRp718
(dp719
g12
g29
sg14
S'Palatino'
p720
sg16
I500
sg17
g13
sg18
g13
sg19
g489
sg21
g22
sbag7
(g8
g9
NtRp721
(dp722
g12
g29
sg14
S'Times'
p723
sg16
I700
sg17
g13
sg18
g13
sg19
g490
sg21
g22
sbag7
(g8
g9
NtRp724
(dp725
g12
g29
sg14
S'ITC Bookman'
p726
sg16
I200
sg17
g13
sg18
g13
sg19
g491
sg21
g22
sbag7
(g8
g9
NtRp727
(dp728
g12
g29
sg14
S'Courier'
p729
sg16
I500
sg17
g13
sg18
g13
sg19
g492
sg21
g22
sbag7
(g8
g9
NtRp730
(dp731
g12
g13
sg14
S'Utopia'
p732
sg16
I400
sg17
g13
sg18
g13
sg19
g493
sg21
g22
sbag7
(g8
g9
NtRp733
(dp734
g12
g13
sg14
S'ITC Avant Garde Gothic'
p735
sg16
I600
sg17
g13
sg18
g13
sg19
g494
sg21
g22
sbag7
(g8
g9
NtRp736
(dp737
g12
g13
sg14
S'New Century Schoolbook'
p738
sg16
I500
sg17
g13
sg18
g13
sg19
g495
sg21
g22
sbag7
(g8
g9
NtRp739
(dp740
g12
g29
sg14
S'Helvetica'
p741
sg16
I700
sg17
g156
sg18
g13
sg19
g496
sg21
g22
sbag7
(g8
g9
NtRp742
(dp743
g12
g29
sg14
S'Times'
p744
sg16
I500
sg17
g13
sg18
g13
sg19
g497
sg21
g22
sbag7
(g8
g9
NtRp745
(dp746
g12
g13
sg14
S'Times'
p747
sg16
I500
sg17
g13
sg18
g13
sg19
g498
sg21
g22
sbag7
(g8
g9
NtRp748
(dp749
g12
g29
sg14
S'Utopia'
p750
sg16
I400
sg17
g13
sg18
g13
sg19
g499
sg21
g22
sbag7
(g8
g9
NtRp751
(dp752
g12
g13
sg14
S'Courier'
p753
sg16
I500
sg17
g13
sg18
g13
sg19
g500
sg21
g22
sbag7
(g8
g9
NtRp754
(dp755
g12
g13
sg14
S'Helvetica'
p756
sg16
I500
sg17
g13
sg18
g13
sg19
g501
sg21
g22
sbag7
(g8
g9
NtRp757
(dp758
g12
g29
sg14
S'New Century Schoolbook'
p759
sg16
I500
sg17
g13
sg18
g13
sg19
g502
sg21
g22
sbag7
(g8
g9
NtRp760
(dp761
g12
g29
sg14
S'Nimbus Roman No9 L'
p762
sg16
I700
sg17
g13
sg18
g13
sg19
g503
sg21
g22
sbag7
(g8
g9
NtRp763
(dp764
g12
g29
sg14
S'Nimbus Sans L'
p765
sg16
I700
sg17
g13
sg18
g13
sg19
g504
sg21
g22
sbag7
(g8
g9
NtRp766
(dp767
g12
g13
sg14
S'Nimbus Roman No9 L'
p768
sg16
I700
sg17
g13
sg18
g13
sg19
g505
sg21
g22
sbag7
(g8
g9
NtRp769
(dp770
g12
g29
sg14
S'LMMonoSlant10'
p771
sg16
I400
sg17
g13
sg18
g13
sg19
g506
sg21
g22
sbag7
(g8
g9
NtRp772
(dp773
g12
g13
sg14
S'LMMono10'
p774
sg16
I400
sg17
g13
sg18
g13
sg19
g507
sg21
g22
sbag7
(g8
g9
NtRp775
(dp776
g12
g13
sg14
S'Standard Symbols L'
p777
sg16
I400
sg17
g13
sg18
g13
sg19
g508
sg21
g22
sbag7
(g8
g9
NtRp778
(dp779
g12
g13
sg14
S'Dingbats'
p780
sg16
I400
sg17
g13
sg18
g13
sg19
g509
sg21
g22
sbag7
(g8
g9
NtRp781
(dp782
g12
g13
sg14
S'URW Palladio L'
p783
sg16
I700
sg17
g13
sg18
g13
sg19
g510
sg21
g22
sbag7
(g8
g9
NtRp784
(dp785
g12
g29
sg14
S'LMMonoPropLt10'
p786
sg16
I700
sg17
g13
sg18
g13
sg19
g511
sg21
g22
sbag7
(g8
g9
NtRp787
(dp788
g12
g13
sg14
S'LMRoman10'
p789
sg16
I700
sg17
g13
sg18
g13
sg19
g512
sg21
g22
sbag7
(g8
g9
NtRp790
(dp791
g12
g29
sg14
S'LMSansQuot8'
p792
sg16
I400
sg17
g13
sg18
g13
sg19
g513
sg21
g22
sbag7
(g8
g9
NtRp793
(dp794
g12
g13
sg14
S'URW Bookman L'
p795
sg16
I400
sg17
g13
sg18
g13
sg19
g514
sg21
g22
sbag7
(g8
g9
NtRp796
(dp797
g12
g13
sg14
S'Nimbus Mono L'
p798
sg16
I400
sg17
g13
sg18
g13
sg19
g515
sg21
g22
sbag7
(g8
g9
NtRp799
(dp800
g12
g13
sg14
S'Century Schoolbook L'
p801
sg16
I500
sg17
g13
sg18
g13
sg19
g516
sg21
g22
sbag7
(g8
g9
NtRp802
(dp803
g12
g29
sg14
S'URW Gothic L'
p804
sg16
I400
sg17
g13
sg18
g13
sg19
g517
sg21
g22
sbag7
(g8
g9
NtRp805
(dp806
g12
g13
sg14
S'Nimbus Sans L'
p807
sg16
I700
sg17
g156
sg18
g13
sg19
g518
sg21
g22
sbag7
(g8
g9
NtRp808
(dp809
g12
g29
sg14
S'URW Chancery L'
p810
sg16
I500
sg17
g13
sg18
g13
sg19
g519
sg21
g22
sbag7
(g8
g9
NtRp811
(dp812
g12
g13
sg14
S'LMMonoCaps10'
p813
sg16
I400
sg17
g13
sg18
g13
sg19
g520
sg21
g22
sbag7
(g8
g9
NtRp814
(dp815
g12
g29
sg14
S'Nimbus Mono L'
p816
sg16
I700
sg17
g13
sg18
g13
sg19
g521
sg21
g22
sbag7
(g8
g9
NtRp817
(dp818
g12
g13
sg14
S'LMMonoLtCond10'
p819
sg16
I200
sg17
g156
sg18
g13
sg19
g522
sg21
g22
sbag7
(g8
g9
NtRp820
(dp821
g12
g29
sg14
S'Century Schoolbook L'
p822
sg16
I400
sg17
g13
sg18
g13
sg19
g523
sg21
g22
sbag7
(g8
g9
NtRp823
(dp824
g12
g29
sg14
S'LMRomanCaps10'
p825
sg16
I400
sg17
g13
sg18
g13
sg19
g524
sg21
g22
sbag7
(g8
g9
NtRp826
(dp827
g12
g13
sg14
S'LMSans10'
p828
sg16
I700
sg17
g13
sg18
g13
sg19
g525
sg21
g22
sbag7
(g8
g9
NtRp829
(dp830
g12
g29
sg14
S'LMMonoProp10'
p831
sg16
I400
sg17
g13
sg18
g13
sg19
g526
sg21
g22
sbag7
(g8
g9
NtRp832
(dp833
g12
g13
sg14
S'LMRomanDunh10'
p834
sg16
I400
sg17
g13
sg18
g13
sg19
g527
sg21
g22
sbag7
(g8
g9
NtRp835
(dp836
g12
g13
sg14
S'LMSans10'
p837
sg16
I400
sg17
g13
sg18
g13
sg19
g528
sg21
g22
sbag7
(g8
g9
NtRp838
(dp839
g12
g29
sg14
S'Nimbus Sans L'
p840
sg16
I700
sg17
g156
sg18
g13
sg19
g529
sg21
g22
sbag7
(g8
g9
NtRp841
(dp842
g12
g13
sg14
S'Nimbus Sans L'
p843
sg16
I400
sg17
g13
sg18
g13
sg19
g530
sg21
g22
sbag7
(g8
g9
NtRp844
(dp845
g12
g29
sg14
S'URW Palladio L'
p846
sg16
I700
sg17
g13
sg18
g13
sg19
g531
sg21
g22
sbag7
(g8
g9
NtRp847
(dp848
g12
g29
sg14
S'URW Bookman L'
p849
sg16
I700
sg17
g13
sg18
g13
sg19
g532
sg21
g22
sbag7
(g8
g9
NtRp850
(dp851
g12
g13
sg14
S'LMMonoProp10'
p852
sg16
I400
sg17
g13
sg18
g13
sg19
g533
sg21
g22
sbag7
(g8
g9
NtRp853
(dp854
g12
g29
sg14
S'LMRomanDunh10'
p855
sg16
I400
sg17
g13
sg18
g13
sg19
g534
sg21
g22
sbag7
(g8
g9
NtRp856
(dp857
g12
g13
sg14
S'URW Gothic L'
p858
sg16
I400
sg17
g13
sg18
g13
sg19
g535
sg21
g22
sbag7
(g8
g9
NtRp859
(dp860
g12
g29
sg14
S'LMSansDemiCond10'
p861
sg16
I600
sg17
g156
sg18
g13
sg19
g536
sg21
g22
sbag7
(g8
g9
NtRp862
(dp863
g12
g13
sg14
S'Nimbus Mono L'
p864
sg16
I700
sg17
g13
sg18
g13
sg19
g537
sg21
g22
sbag7
(g8
g9
NtRp865
(dp866
g12
g13
sg14
S'LMSansQuot8'
p867
sg16
I400
sg17
g13
sg18
g13
sg19
g538
sg21
g22
sbag7
(g8
g9
NtRp868
(dp869
g12
g29
sg14
S'LMMonoCaps10'
p870
sg16
I400
sg17
g13
sg18
g13
sg19
g539
sg21
g22
sbag7
(g8
g9
NtRp871
(dp872
g12
g29
sg14
S'LMMono10'
p873
sg16
I400
sg17
g13
sg18
g13
sg19
g540
sg21
g22
sbag7
(g8
g9
NtRp874
(dp875
g12
g29
sg14
S'LMRomanSlant10'
p876
sg16
I400
sg17
g13
sg18
g13
sg19
g541
sg21
g22
sbag7
(g8
g9
NtRp877
(dp878
g12
g13
sg14
S'Nimbus Roman No9 L'
p879
sg16
I400
sg17
g13
sg18
g13
sg19
g542
sg21
g22
sbag7
(g8
g9
NtRp880
(dp881
g12
g13
sg14
S'Nimbus Sans L'
p882
sg16
I400
sg17
g156
sg18
g13
sg19
g543
sg21
g22
sbag7
(g8
g9
NtRp883
(dp884
g12
g13
sg14
S'LMSansDemiCond10'
p885
sg16
I600
sg17
g156
sg18
g13
sg19
g544
sg21
g22
sbag7
(g8
g9
NtRp886
(dp887
g12
g13
sg14
S'LMRomanCaps10'
p888
sg16
I400
sg17
g13
sg18
g13
sg19
g545
sg21
g22
sbag7
(g8
g9
NtRp889
(dp890
g12
g29
sg14
S'Nimbus Sans L'
p891
sg16
I400
sg17
g13
sg18
g13
sg19
g546
sg21
g22
sbag7
(g8
g9
NtRp892
(dp893
g12
g13
sg14
S'LMMonoLt10'
p894
sg16
I200
sg17
g13
sg18
g13
sg19
g547
sg21
g22
sbag7
(g8
g9
NtRp895
(dp896
g12
g13
sg14
S'LMRomanDemi10'
p897
sg16
I600
sg17
g13
sg18
g13
sg19
g548
sg21
g22
sbag7
(g8
g9
NtRp898
(dp899
g12
g29
sg14
S'LMSans10'
p900
sg16
I400
sg17
g13
sg18
g13
sg19
g549
sg21
g22
sbag7
(g8
g9
NtRp901
(dp902
g12
g29
sg14
S'LMRomanDemi10'
p903
sg16
I600
sg17
g13
sg18
g13
sg19
g550
sg21
g22
sbag7
(g8
g9
NtRp904
(dp905
g12
g29
sg14
S'URW Palladio L'
p906
sg16
I400
sg17
g13
sg18
g13
sg19
g551
sg21
g22
sbag7
(g8
g9
NtRp907
(dp908
g12
g29
sg14
S'LMRoman10'
p909
sg16
I400
sg17
g13
sg18
g13
sg19
g552
sg21
g22
sbag7
(g8
g9
NtRp910
(dp911
g12
g13
sg14
S'Nimbus Sans L'
p912
sg16
I700
sg17
g13
sg18
g13
sg19
g553
sg21
g22
sbag7
(g8
g9
NtRp913
(dp914
g12
g29
sg14
S'LMSansQuot8'
p915
sg16
I700
sg17
g13
sg18
g13
sg19
g554
sg21
g22
sbag7
(g8
g9
NtRp916
(dp917
g12
g13
sg14
S'URW Palladio L'
p918
sg16
I500
sg17
g13
sg18
g13
sg19
g555
sg21
g22
sbag7
(g8
g9
NtRp919
(dp920
g12
g13
sg14
S'LMRoman10'
p921
sg16
I400
sg17
g13
sg18
g13
sg19
g556
sg21
g22
sbag7
(g8
g9
NtRp922
(dp923
g12
g13
sg14
S'URW Gothic L'
p924
sg16
I600
sg17
g13
sg18
g13
sg19
g557
sg21
g22
sbag7
(g8
g9
NtRp925
(dp926
g12
g13
sg14
S'LMSansQuot8'
p927
sg16
I700
sg17
g13
sg18
g13
sg19
g558
sg21
g22
sbag7
(g8
g9
NtRp928
(dp929
g12
g29
sg14
S'LMRoman10'
p930
sg16
I700
sg17
g13
sg18
g13
sg19
g559
sg21
g22
sbag7
(g8
g9
NtRp931
(dp932
g12
g13
sg14
S'LMMonoLt10'
p933
sg16
I700
sg17
g13
sg18
g13
sg19
g560
sg21
g22
sbag7
(g8
g9
NtRp934
(dp935
g12
g29
sg14
S'Century Schoolbook L'
p936
sg16
I700
sg17
g13
sg18
g13
sg19
g561
sg21
g22
sbag7
(g8
g9
NtRp937
(dp938
g12
g29
sg14
S'URW Bookman L'
p939
sg16
I400
sg17
g13
sg18
g13
sg19
g562
sg21
g22
sbag7
(g8
g9
NtRp940
(dp941
g12
g13
sg14
S'LMMonoPropLt10'
p942
sg16
I700
sg17
g13
sg18
g13
sg19
g563
sg21
g22
sbag7
(g8
g9
NtRp943
(dp944
g12
g13
sg14
S'Century Schoolbook L'
p945
sg16
I700
sg17
g13
sg18
g13
sg19
g564
sg21
g22
sbag7
(g8
g9
NtRp946
(dp947
g12
g29
sg14
S'LMRomanSlant10'
p948
sg16
I700
sg17
g13
sg18
g13
sg19
g565
sg21
g22
sbag7
(g8
g9
NtRp949
(dp950
g12
g29
sg14
S'LMMonoLt10'
p951
sg16
I700
sg17
g13
sg18
g13
sg19
g566
sg21
g22
sbag7
(g8
g9
NtRp952
(dp953
g12
g29
sg14
S'Nimbus Mono L'
p954
sg16
I400
sg17
g13
sg18
g13
sg19
g567
sg21
g22
sbag7
(g8
g9
NtRp955
(dp956
g12
g29
sg14
S'LMMonoLtCond10'
p957
sg16
I200
sg17
g156
sg18
g13
sg19
g568
sg21
g22
sbag7
(g8
g9
NtRp958
(dp959
g12
g29
sg14
S'Nimbus Roman No9 L'
p960
sg16
I400
sg17
g13
sg18
g13
sg19
g569
sg21
g22
sbag7
(g8
g9
NtRp961
(dp962
g12
g29
sg14
S'LMMonoLt10'
p963
sg16
I200
sg17
g13
sg18
g13
sg19
g570
sg21
g22
sbag7
(g8
g9
NtRp964
(dp965
g12
g29
sg14
S'LMSans10'
p966
sg16
I700
sg17
g13
sg18
g13
sg19
g571
sg21
g22
sbag7
(g8
g9
NtRp967
(dp968
g12
g13
sg14
S'LMMonoPropLt10'
p969
sg16
I200
sg17
g13
sg18
g13
sg19
g572
sg21
g22
sbag7
(g8
g9
NtRp970
(dp971
g12
g29
sg14
S'URW Gothic L'
p972
sg16
I600
sg17
g13
sg18
g13
sg19
g573
sg21
g22
sbag7
(g8
g9
NtRp973
(dp974
g12
g29
sg14
S'Nimbus Sans L'
p975
sg16
I400
sg17
g156
sg18
g13
sg19
g574
sg21
g22
sbag7
(g8
g9
NtRp976
(dp977
g12
g29
sg14
S'LMMonoPropLt10'
p978
sg16
I200
sg17
g13
sg18
g13
sg19
g575
sg21
g22
sbag7
(g8
g9
NtRp979
(dp980
g12
g13
sg14
S'URW Bookman L'
p981
sg16
I700
sg17
g13
sg18
g13
sg19
g576
sg21
g22
sbag7
(g8
g9
NtRp982
(dp983
g12
g13
sg14
S'LMRomanUnsl10'
p984
sg16
I400
sg17
g13
sg18
g13
sg19
g577
sg21
g22
sbasb.